target datalayout = "e-m:e-p270:32:32-p271:32:32-p272:64:64-i64:64-i128:128-f80:128-n8:16:32:64-S128"
target triple = "x86_64-pc-linux-gnu"

%"struct.faiss::IDSelectorRange" = type <{ %"struct.faiss::IDSelector", i64, i64, i8, [7 x i8] }>
%"struct.faiss::IDSelector" = type { ptr }

@stderr = external global ptr, align 8
@.str = private unnamed_addr constant [44 x i8] c"Faiss assertion '%s' failed in %s at %s:%d\0A\00", align 1
@.str.1 = private unnamed_addr constant [14 x i8] c"assume_sorted\00", align 1
@__PRETTY_FUNCTION__._ZNK5faiss15IDSelectorRange22find_sorted_ids_boundsEmPKlPmS3_ = private unnamed_addr constant [101 x i8] c"void faiss::IDSelectorRange::find_sorted_ids_bounds(size_t, const idx_t *, size_t *, size_t *) const\00", align 1
@.str.2 = private unnamed_addr constant [115 x i8] c"generated/home/dtcxzyw/WorkSpace/Projects/compilers/llvm-opt-benchmark/bench/faiss/faiss/faiss/impl/IDSelector.cpp\00", align 1

; Function Attrs: mustprogress nounwind uwtable
define void @_ZNK5faiss15IDSelectorRange22find_sorted_ids_boundsEmPKlPmS3_(ptr noundef nonnull align 8 dereferenceable(25) %0, i64 noundef %1, ptr noundef %2, ptr noundef %3, ptr noundef %4) #0 align 2 {
  %6 = alloca ptr, align 8
  %7 = alloca i64, align 8
  %8 = alloca ptr, align 8
  %9 = alloca ptr, align 8
  %10 = alloca ptr, align 8
  %11 = alloca i64, align 8
  %12 = alloca i64, align 8
  %13 = alloca i64, align 8
  %14 = alloca i64, align 8
  %15 = alloca i64, align 8
  %16 = alloca i64, align 8
  store ptr %0, ptr %6, align 8
  store i64 %1, ptr %7, align 8
  store ptr %2, ptr %8, align 8
  store ptr %3, ptr %9, align 8
  store ptr %4, ptr %10, align 8
  %17 = load ptr, ptr %6, align 8
  br label %18

18:                                               ; preds = %5
  %19 = getelementptr inbounds %"struct.faiss::IDSelectorRange", ptr %17, i32 0, i32 3
  %20 = load i8, ptr %19, align 8
  %21 = trunc i8 %20 to i1
  br i1 %21, label %25, label %22

22:                                               ; preds = %18
  %23 = load ptr, ptr @stderr, align 8
  %24 = call i32 (ptr, ptr, ...) @fprintf(ptr noundef %23, ptr noundef @.str, ptr noundef @.str.1, ptr noundef @__PRETTY_FUNCTION__._ZNK5faiss15IDSelectorRange22find_sorted_ids_boundsEmPKlPmS3_, ptr noundef @.str.2, i32 noundef 29) #12
  call void @abort() #14
  unreachable

25:                                               ; preds = %18
  br label %26

26:                                               ; preds = %25
  %27 = load i64, ptr %7, align 8
  %28 = icmp eq i64 %27, 0
  br i1 %28, label %45, label %29

29:                                               ; preds = %26
  %30 = getelementptr inbounds %"struct.faiss::IDSelectorRange", ptr %17, i32 0, i32 2
  %31 = load i64, ptr %30, align 8
  %32 = load ptr, ptr %8, align 8
  %33 = getelementptr inbounds i64, ptr %32, i64 0
  %34 = load i64, ptr %33, align 8
  %35 = icmp sle i64 %31, %34
  br i1 %35, label %45, label %36

36:                                               ; preds = %29
  %37 = getelementptr inbounds %"struct.faiss::IDSelectorRange", ptr %17, i32 0, i32 1
  %38 = load i64, ptr %37, align 8
  %39 = load ptr, ptr %8, align 8
  %40 = load i64, ptr %7, align 8
  %41 = sub i64 %40, 1
  %42 = getelementptr inbounds i64, ptr %39, i64 %41
  %43 = load i64, ptr %42, align 8
  %44 = icmp sgt i64 %38, %43
  br i1 %44, label %45, label %48

45:                                               ; preds = %36, %29, %26
  %46 = load ptr, ptr %10, align 8
  store i64 0, ptr %46, align 8
  %47 = load ptr, ptr %9, align 8
  store i64 0, ptr %47, align 8
  br label %131

48:                                               ; preds = %36
  %49 = load ptr, ptr %8, align 8
  %50 = getelementptr inbounds i64, ptr %49, i64 0
  %51 = load i64, ptr %50, align 8
  %52 = getelementptr inbounds %"struct.faiss::IDSelectorRange", ptr %17, i32 0, i32 1
  %53 = load i64, ptr %52, align 8
  %54 = icmp sge i64 %51, %53
  br i1 %54, label %55, label %57

55:                                               ; preds = %48
  %56 = load ptr, ptr %9, align 8
  store i64 0, ptr %56, align 8
  br label %84

57:                                               ; preds = %48
  store i64 0, ptr %11, align 8
  %58 = load i64, ptr %7, align 8
  store i64 %58, ptr %12, align 8
  br label %59

59:                                               ; preds = %80, %57
  %60 = load i64, ptr %12, align 8
  %61 = load i64, ptr %11, align 8
  %62 = add i64 %61, 1
  %63 = icmp ugt i64 %60, %62
  br i1 %63, label %64, label %81

64:                                               ; preds = %59
  %65 = load i64, ptr %11, align 8
  %66 = load i64, ptr %12, align 8
  %67 = add i64 %65, %66
  %68 = udiv i64 %67, 2
  store i64 %68, ptr %13, align 8
  %69 = load ptr, ptr %8, align 8
  %70 = load i64, ptr %13, align 8
  %71 = getelementptr inbounds i64, ptr %69, i64 %70
  %72 = load i64, ptr %71, align 8
  %73 = getelementptr inbounds %"struct.faiss::IDSelectorRange", ptr %17, i32 0, i32 1
  %74 = load i64, ptr %73, align 8
  %75 = icmp sge i64 %72, %74
  br i1 %75, label %76, label %78

76:                                               ; preds = %64
  %77 = load i64, ptr %13, align 8
  store i64 %77, ptr %12, align 8
  br label %80

78:                                               ; preds = %64
  %79 = load i64, ptr %13, align 8
  store i64 %79, ptr %11, align 8
  br label %80

80:                                               ; preds = %78, %76
  br label %59, !llvm.loop !7

81:                                               ; preds = %59
  %82 = load i64, ptr %12, align 8
  %83 = load ptr, ptr %9, align 8
  store i64 %82, ptr %83, align 8
  br label %84

84:                                               ; preds = %81, %55
  %85 = load ptr, ptr %9, align 8
  %86 = load i64, ptr %85, align 8
  %87 = load i64, ptr %7, align 8
  %88 = icmp eq i64 %86, %87
  br i1 %88, label %98, label %89

89:                                               ; preds = %84
  %90 = load ptr, ptr %8, align 8
  %91 = load ptr, ptr %9, align 8
  %92 = load i64, ptr %91, align 8
  %93 = getelementptr inbounds i64, ptr %90, i64 %92
  %94 = load i64, ptr %93, align 8
  %95 = getelementptr inbounds %"struct.faiss::IDSelectorRange", ptr %17, i32 0, i32 2
  %96 = load i64, ptr %95, align 8
  %97 = icmp sge i64 %94, %96
  br i1 %97, label %98, label %102

98:                                               ; preds = %89, %84
  %99 = load ptr, ptr %9, align 8
  %100 = load i64, ptr %99, align 8
  %101 = load ptr, ptr %10, align 8
  store i64 %100, ptr %101, align 8
  br label %131

102:                                              ; preds = %89
  %103 = load ptr, ptr %9, align 8
  %104 = load i64, ptr %103, align 8
  store i64 %104, ptr %14, align 8
  %105 = load i64, ptr %7, align 8
  store i64 %105, ptr %15, align 8
  br label %106

106:                                              ; preds = %127, %102
  %107 = load i64, ptr %15, align 8
  %108 = load i64, ptr %14, align 8
  %109 = add i64 %108, 1
  %110 = icmp ugt i64 %107, %109
  br i1 %110, label %111, label %128

111:                                              ; preds = %106
  %112 = load i64, ptr %14, align 8
  %113 = load i64, ptr %15, align 8
  %114 = add i64 %112, %113
  %115 = udiv i64 %114, 2
  store i64 %115, ptr %16, align 8
  %116 = load ptr, ptr %8, align 8
  %117 = load i64, ptr %16, align 8
  %118 = getelementptr inbounds i64, ptr %116, i64 %117
  %119 = load i64, ptr %118, align 8
  %120 = getelementptr inbounds %"struct.faiss::IDSelectorRange", ptr %17, i32 0, i32 2
  %121 = load i64, ptr %120, align 8
  %122 = icmp sge i64 %119, %121
  br i1 %122, label %123, label %125

123:                                              ; preds = %111
  %124 = load i64, ptr %16, align 8
  store i64 %124, ptr %15, align 8
  br label %127

125:                                              ; preds = %111
  %126 = load i64, ptr %16, align 8
  store i64 %126, ptr %14, align 8
  br label %127

127:                                              ; preds = %125, %123
  br label %106, !llvm.loop !8

128:                                              ; preds = %106
  %129 = load i64, ptr %15, align 8
  %130 = load ptr, ptr %10, align 8
  store i64 %129, ptr %130, align 8
  br label %131

131:                                              ; preds = %128, %98, %45
  ret void
}