; Function Attrs: mustprogress nounwind uwtable
define void @_ZNK5faiss15IDSelectorRange22find_sorted_ids_boundsEmPKlPmS3_(ptr nocapture noundef nonnull readonly align 8 dereferenceable(25) %0, i64 noundef %1, ptr nocapture noundef readonly %2, ptr nocapture noundef writeonly %3, ptr nocapture noundef writeonly %4) local_unnamed_addr #1 align 2 {
  %6 = getelementptr inbounds i8, ptr %0, i64 24
  %7 = load i8, ptr %6, align 8
  %8 = and i8 %7, 1
  %.not = icmp eq i8 %8, 0
  br i1 %.not, label %9, label %12

9:                                                ; preds = %5
  %10 = load ptr, ptr @stderr, align 8
  %11 = tail call i32 (ptr, ptr, ...) @fprintf(ptr noundef %10, ptr noundef nonnull @.str, ptr noundef nonnull @.str.1, ptr noundef nonnull @__PRETTY_FUNCTION__._ZNK5faiss15IDSelectorRange22find_sorted_ids_boundsEmPKlPmS3_, ptr noundef nonnull @.str.2, i32 noundef 29) #17
  tail call void @abort() #18
  unreachable

12:                                               ; preds = %5
  %13 = icmp eq i64 %1, 0
  br i1 %13, label %25, label %14

14:                                               ; preds = %12
  %15 = getelementptr inbounds i8, ptr %0, i64 16
  %16 = load i64, ptr %15, align 8
  %17 = load i64, ptr %2, align 8
  %.not47 = icmp sgt i64 %16, %17
  br i1 %.not47, label %18, label %25

18:                                               ; preds = %14
  %19 = getelementptr inbounds i8, ptr %0, i64 8
  %20 = load i64, ptr %19, align 8
  %21 = getelementptr i64, ptr %2, i64 %1
  %22 = getelementptr i8, ptr %21, i64 -8
  %23 = load i64, ptr %22, align 8
  %24 = icmp sgt i64 %20, %23
  br i1 %24, label %25, label %26

25:                                               ; preds = %18, %14, %12
  store i64 0, ptr %4, align 8
  store i64 0, ptr %3, align 8
  br label %47

26:                                               ; preds = %18
  %.not48 = icmp slt i64 %17, %20
  br i1 %.not48, label %.preheader52, label %.loopexit

.preheader52:                                     ; preds = %26
  %.not59 = icmp eq i64 %1, 1
  br i1 %.not59, label %.loopexit, label %.lr.ph

.lr.ph:                                           ; preds = %.preheader52, %.lr.ph
  %.054 = phi i64 [ %..0, %.lr.ph ], [ 0, %.preheader52 ]
  %.04153 = phi i64 [ %.041., %.lr.ph ], [ %1, %.preheader52 ]
  %27 = add i64 %.054, %.04153
  %28 = lshr i64 %27, 1
  %29 = getelementptr inbounds i64, ptr %2, i64 %28
  %30 = load i64, ptr %29, align 8
  %.not49 = icmp slt i64 %30, %20
  %.041. = select i1 %.not49, i64 %.04153, i64 %28
  %..0 = select i1 %.not49, i64 %28, i64 %.054
  %31 = add nuw i64 %..0, 1
  %32 = icmp ugt i64 %.041., %31
  br i1 %32, label %.lr.ph, label %.loopexit, !llvm.loop !10

.loopexit:                                        ; preds = %.lr.ph, %.preheader52, %26
  %storemerge = phi i64 [ 0, %26 ], [ 1, %.preheader52 ], [ %.041., %.lr.ph ]
  store i64 %storemerge, ptr %3, align 8
  %33 = icmp eq i64 %storemerge, %1
  br i1 %33, label %40, label %34

34:                                               ; preds = %.loopexit
  %35 = getelementptr inbounds i64, ptr %2, i64 %storemerge
  %36 = load i64, ptr %35, align 8
  %37 = load i64, ptr %15, align 8
  %.not50 = icmp slt i64 %36, %37
  br i1 %.not50, label %.preheader, label %40

.preheader:                                       ; preds = %34
  %38 = add nuw i64 %storemerge, 1
  %39 = icmp ult i64 %38, %1
  br i1 %39, label %.lr.ph57, label %._crit_edge

40:                                               ; preds = %34, %.loopexit
  store i64 %storemerge, ptr %4, align 8
  br label %47

.lr.ph57:                                         ; preds = %.preheader, %.lr.ph57
  %.03756 = phi i64 [ %.037., %.lr.ph57 ], [ %1, %.preheader ]
  %.03955 = phi i64 [ %..039, %.lr.ph57 ], [ %storemerge, %.preheader ]
  %41 = add i64 %.03756, %.03955
  %42 = lshr i64 %41, 1
  %43 = getelementptr inbounds i64, ptr %2, i64 %42
  %44 = load i64, ptr %43, align 8
  %.not51 = icmp slt i64 %44, %37
  %..039 = select i1 %.not51, i64 %42, i64 %.03955
  %.037. = select i1 %.not51, i64 %.03756, i64 %42
  %45 = add i64 %..039, 1
  %46 = icmp ugt i64 %.037., %45
  br i1 %46, label %.lr.ph57, label %._crit_edge, !llvm.loop !11

._crit_edge:                                      ; preds = %.lr.ph57, %.preheader
  %.037.lcssa = phi i64 [ %1, %.preheader ], [ %.037., %.lr.ph57 ]
  store i64 %.037.lcssa, ptr %4, align 8
  br label %47

47:                                               ; preds = %._crit_edge, %40, %25
  ret void
}